; ModuleID = '31/1388.c'
source_filename = "31/1388.c"
target datalayout = "e-m:e-p270:32:32-p271:32:32-p272:64:64-i64:64-f80:128-n8:16:32:64-S128"
target triple = "x86_64-pc-linux-gnu"

%struct.student = type { [100 x i8], %struct.student* }

@n = common dso_local global i32 0, align 4
@.str = private unnamed_addr constant [4 x i8] c"%s\0A\00", align 1

; Function Attrs: noinline nounwind uwtable
define dso_local void @main() #0 {
  %1 = alloca %struct.student*, align 8
  %2 = alloca %struct.student*, align 8
  %3 = alloca %struct.student*, align 8
  store i32 0, i32* @n, align 4
  %4 = call noalias i8* @malloc(i64 100) #3
  %5 = bitcast i8* %4 to %struct.student*
  store %struct.student* %5, %struct.student** %3, align 8
  store %struct.student* %5, %struct.student** %2, align 8
  %6 = load %struct.student*, %struct.student** %2, align 8
  %7 = getelementptr inbounds %struct.student, %struct.student* %6, i32 0, i32 0
  %8 = getelementptr inbounds [100 x i8], [100 x i8]* %7, i64 0, i64 0
  %9 = call i32 (i8*, ...) bitcast (i32 (...)* @gets to i32 (i8*, ...)*)(i8* %8)
  store %struct.student* null, %struct.student** %1, align 8
  br label %10

10:                                               ; preds = %29, %0
  %11 = load %struct.student*, %struct.student** %2, align 8
  %12 = getelementptr inbounds %struct.student, %struct.student* %11, i32 0, i32 0
  %13 = getelementptr inbounds [100 x i8], [100 x i8]* %12, i64 0, i64 0
  %14 = load i8, i8* %13, align 8
  %15 = sext i8 %14 to i32
  %16 = icmp ne i32 %15, 101
  br i1 %16, label %17, label %37

17:                                               ; preds = %10
  %18 = load i32, i32* @n, align 4
  %19 = add nsw i32 %18, 1
  store i32 %19, i32* @n, align 4
  %20 = load i32, i32* @n, align 4
  %21 = icmp eq i32 %20, 1
  br i1 %21, label %22, label %25

22:                                               ; preds = %17
  %23 = load %struct.student*, %struct.student** %2, align 8
  %24 = getelementptr inbounds %struct.student, %struct.student* %23, i32 0, i32 1
  store %struct.student* null, %struct.student** %24, align 8
  br label %29

25:                                               ; preds = %17
  %26 = load %struct.student*, %struct.student** %3, align 8
  %27 = load %struct.student*, %struct.student** %2, align 8
  %28 = getelementptr inbounds %struct.student, %struct.student* %27, i32 0, i32 1
  store %struct.student* %26, %struct.student** %28, align 8
  br label %29

29:                                               ; preds = %25, %22
  %30 = load %struct.student*, %struct.student** %2, align 8
  store %struct.student* %30, %struct.student** %3, align 8
  %31 = call noalias i8* @malloc(i64 100) #3
  %32 = bitcast i8* %31 to %struct.student*
  store %struct.student* %32, %struct.student** %2, align 8
  %33 = load %struct.student*, %struct.student** %2, align 8
  %34 = getelementptr inbounds %struct.student, %struct.student* %33, i32 0, i32 0
  %35 = getelementptr inbounds [100 x i8], [100 x i8]* %34, i64 0, i64 0
  %36 = call i32 (i8*, ...) bitcast (i32 (...)* @gets to i32 (i8*, ...)*)(i8* %35)
  br label %10

37:                                               ; preds = %10
  %38 = load %struct.student*, %struct.student** %3, align 8
  store %struct.student* %38, %struct.student** %1, align 8
  %39 = load %struct.student*, %struct.student** %1, align 8
  store %struct.student* %39, %struct.student** %2, align 8
  br label %40

40:                                               ; preds = %43, %37
  %41 = load %struct.student*, %struct.student** %2, align 8
  %42 = icmp ne %struct.student* %41, null
  br i1 %42, label %43, label %51

43:                                               ; preds = %40
  %44 = load %struct.student*, %struct.student** %2, align 8
  %45 = getelementptr inbounds %struct.student, %struct.student* %44, i32 0, i32 0
  %46 = getelementptr inbounds [100 x i8], [100 x i8]* %45, i64 0, i64 0
  %47 = call i32 (i8*, ...) @printf(i8* getelementptr inbounds ([4 x i8], [4 x i8]* @.str, i64 0, i64 0), i8* %46)
  %48 = load %struct.student*, %struct.student** %2, align 8
  %49 = getelementptr inbounds %struct.student, %struct.student* %48, i32 0, i32 1
  %50 = load %struct.student*, %struct.student** %49, align 8
  store %struct.student* %50, %struct.student** %2, align 8
  br label %40

51:                                               ; preds = %40
  ret void
}

; Function Attrs: nounwind
declare dso_local noalias i8* @malloc(i64) #1

declare dso_local i32 @gets(...) #2

declare dso_local i32 @printf(i8*, ...) #2


!llvm.module.flags = !{!0}
!llvm.ident = !{!1}

!0 = !{i32 1, !"wchar_size", i32 4}
!1 = !{!"clang version 10.0.0-4ubuntu1 "}
